target datalayout = "e-m:e-p270:32:32-p271:32:32-p272:64:64-i64:64-i128:128-f80:128-n8:16:32:64-S128"
target triple = "x86_64-pc-linux-gnu"

%"class.lean::mpz" = type { [1 x %struct.__mpz_struct] }
%struct.__mpz_struct = type { i32, i32, ptr }

; Function Attrs: mustprogress nounwind uwtable
define noundef i32 @_ZNK4lean3mpz3sgnEv(ptr noundef nonnull align 8 dereferenceable(16) %0) #0 align 2 {
  %2 = alloca ptr, align 8
  store ptr %0, ptr %2, align 8, !tbaa !3
  %3 = load ptr, ptr %2, align 8
  %4 = getelementptr inbounds nuw %"class.lean::mpz", ptr %3, i32 0, i32 0
  %5 = getelementptr inbounds [1 x %struct.__mpz_struct], ptr %4, i64 0, i64 0
  %6 = getelementptr inbounds nuw %struct.__mpz_struct, ptr %5, i32 0, i32 1
  %7 = load i32, ptr %6, align 4, !tbaa !15
  %8 = icmp slt i32 %7, 0
  br i1 %8, label %9, label %10

9:                                                ; preds = %1
  br label %17

10:                                               ; preds = %1
  %11 = getelementptr inbounds nuw %"class.lean::mpz", ptr %3, i32 0, i32 0
  %12 = getelementptr inbounds [1 x %struct.__mpz_struct], ptr %11, i64 0, i64 0
  %13 = getelementptr inbounds nuw %struct.__mpz_struct, ptr %12, i32 0, i32 1
  %14 = load i32, ptr %13, align 4, !tbaa !15
  %15 = icmp sgt i32 %14, 0
  %16 = zext i1 %15 to i32
  br label %17

17:                                               ; preds = %10, %9
  %18 = phi i32 [ -1, %9 ], [ %16, %10 ]
  ret i32 %18
}

; Function Attrs: mustprogress nounwind uwtable
define linkonce_odr hidden noundef zeroext i1 @_ZNK4lean3mpz6is_posEv(ptr noundef nonnull align 8 dereferenceable(16) %0) #0 comdat align 2 {
  %2 = alloca ptr, align 8
  store ptr %0, ptr %2, align 8, !tbaa !3
  %3 = load ptr, ptr %2, align 8
  %4 = call noundef i32 @_ZNK4lean3mpz3sgnEv(ptr noundef nonnull align 8 dereferenceable(16) %3)
  %5 = icmp sgt i32 %4, 0
  ret i1 %5
}

; Function Attrs: mustprogress uwtable
define linkonce_odr hidden noundef zeroext i1 @_ZNK4lean3mpz9is_nonposEv(ptr noundef nonnull align 8 dereferenceable(16) %0) #2 comdat align 2 {
  %2 = alloca ptr, align 8
  store ptr %0, ptr %2, align 8, !tbaa !3
  %3 = load ptr, ptr %2, align 8
  %4 = call noundef zeroext i1 @_ZNK4lean3mpz6is_posEv(ptr noundef nonnull align 8 dereferenceable(16) %3)
  %5 = xor i1 %4, true
  ret i1 %5
}

; Function Attrs: mustprogress uwtable
define noundef i64 @_ZNK4lean3mpz4log2Ev(ptr noundef nonnull align 8 dereferenceable(16) %0) #2 align 2 {
  %2 = alloca i64, align 8
  %3 = alloca ptr, align 8
  %4 = alloca i64, align 8
  store ptr %0, ptr %3, align 8, !tbaa !3
  %5 = load ptr, ptr %3, align 8
  %6 = call noundef zeroext i1 @_ZNK4lean3mpz9is_nonposEv(ptr noundef nonnull align 8 dereferenceable(16) %5)
  br i1 %6, label %7, label %8

7:                                                ; preds = %1
  store i64 0, ptr %2, align 8
  br label %14

8:                                                ; preds = %1
  call void @llvm.lifetime.start.p0(i64 8, ptr %4) #17
  %9 = getelementptr inbounds nuw %"class.lean::mpz", ptr %5, i32 0, i32 0
  %10 = getelementptr inbounds [1 x %struct.__mpz_struct], ptr %9, i64 0, i64 0
  %11 = call i64 @__gmpz_sizeinbase(ptr noundef %10, i32 noundef 2) #19
  store i64 %11, ptr %4, align 8, !tbaa !13
  %12 = load i64, ptr %4, align 8, !tbaa !13
  %13 = sub i64 %12, 1
  store i64 %13, ptr %2, align 8
  call void @llvm.lifetime.end.p0(i64 8, ptr %4) #17
  br label %14

14:                                               ; preds = %8, %7
  %15 = load i64, ptr %2, align 8
  ret i64 %15
}