; Function Attrs: mustprogress nofree nounwind willreturn memory(read) uwtable
define noundef i64 @_ZNK4lean3mpz4log2Ev(ptr noundef nonnull align 8 dereferenceable(16) %0) local_unnamed_addr #8 align 2 {
  %2 = getelementptr inbounds nuw i8, ptr %0, i64 4
  %3 = load i32, ptr %2, align 4, !tbaa !3
  %4 = icmp slt i32 %3, 1
  br i1 %4, label %8, label %5

5:                                                ; preds = %1
  %6 = tail call i64 @__gmpz_sizeinbase(ptr noundef nonnull %0, i32 noundef 2) #20
  %7 = add i64 %6, -1
  br label %8

8:                                                ; preds = %1, %5
  %.0 = phi i64 [ %7, %5 ], [ 0, %1 ]
  ret i64 %.0
}